; Function Attrs: mustprogress uwtable
define void @_ZN5folly12AsyncTimeoutC2EPNS_14TimeoutManagerE(ptr noundef nonnull align 8 dereferenceable(200) initializes((0, 8), (136, 164), (176, 200)) %0, ptr noundef %1) unnamed_addr #1 align 2 personality ptr @__gxx_personality_v0 {
  store ptr getelementptr inbounds nuw inrange(-16, 24) (i8, ptr @_ZTVN5folly12AsyncTimeoutE, i64 16), ptr %0, align 8, !tbaa !7
  %3 = getelementptr inbounds nuw i8, ptr %0, i64 8
  %4 = getelementptr inbounds nuw i8, ptr %0, i64 136
  tail call void @llvm.memset.p0.i64(ptr noundef nonnull align 8 dereferenceable(28) %4, i8 0, i64 28, i1 false)
  %5 = getelementptr inbounds nuw i8, ptr %0, i64 176
  store ptr %1, ptr %5, align 8, !tbaa !10
  %6 = getelementptr inbounds nuw i8, ptr %0, i64 184
  tail call void @llvm.memset.p0.i64(ptr noundef nonnull align 8 dereferenceable(16) %6, i8 0, i64 16, i1 false)
  invoke void @event_set(ptr noundef nonnull align 8 dereferenceable(168) %3, i32 noundef -1, i16 noundef signext 1, ptr noundef nonnull @_ZN5folly12AsyncTimeout16libeventCallbackEisPv, ptr noundef nonnull align 8 dereferenceable(200) %0)
          to label %_ZN5folly14EventBaseEvent12eb_event_setEisPFvisPvES1_.exit.i unwind label %13

_ZN5folly14EventBaseEvent12eb_event_setEisPFvisPvES1_.exit.i: ; preds = %2
  invoke void @_ZN5folly14EventBaseEvent10eb_ev_baseEPNS_9EventBaseE(ptr noundef nonnull align 8 dereferenceable(168) %3, ptr noundef null)
          to label %7 unwind label %13

7:                                                ; preds = %_ZN5folly14EventBaseEvent12eb_event_setEisPFvisPvES1_.exit.i
  %.not.i = icmp eq ptr %1, null
  br i1 %.not.i, label %_ZN5folly12AsyncTimeoutC2EPNS_14TimeoutManagerENS1_12InternalEnumE.exit, label %8

8:                                                ; preds = %7
  %9 = load ptr, ptr %5, align 8, !tbaa !10
  %10 = load ptr, ptr %9, align 8, !tbaa !7
  %11 = getelementptr inbounds nuw i8, ptr %10, i64 16
  %12 = load ptr, ptr %11, align 8
  invoke void %12(ptr noundef nonnull align 8 dereferenceable(16) %9, ptr noundef nonnull align 8 dereferenceable(200) %0, i32 noundef 1)
          to label %_ZN5folly12AsyncTimeoutC2EPNS_14TimeoutManagerENS1_12InternalEnumE.exit unwind label %13

13:                                               ; preds = %8, %_ZN5folly14EventBaseEvent12eb_event_setEisPFvisPvES1_.exit.i, %2
  %14 = landingpad { ptr, i32 }
          cleanup
  tail call void @_ZNSt12__shared_ptrIN5folly14RequestContextELN9__gnu_cxx12_Lock_policyE2EED2Ev(ptr noundef nonnull align 8 dereferenceable(16) %6) #14
  tail call void @_ZN5folly14EventBaseEventD2Ev(ptr noundef nonnull align 8 dereferenceable(168) %3) #14
  resume { ptr, i32 } %14

_ZN5folly12AsyncTimeoutC2EPNS_14TimeoutManagerENS1_12InternalEnumE.exit: ; preds = %7, %8
  ret void
}